; Function Attrs: mustprogress nofree norecurse nosync nounwind willreturn memory(argmem: readwrite) uwtable
define internal noundef zeroext i1 @"_ZNSt17_Function_handlerIFbN4cvc58internal12NodeTemplateILb1EEEEZNS1_3smt9PfManager24connectProofToAssertionsESt10shared_ptrINS1_9ProofNodeEERNS5_10AssertionsENS1_14ProofScopeModeEE3$_0E10_M_managerERSt9_Any_dataRKSF_St18_Manager_operation"(ptr noundef nonnull writeonly align 8 captures(none) dereferenceable(16) %0, ptr noundef nonnull align 8 dereferenceable(16) %1, i32 noundef %2) #22 align 2 personality ptr @__gxx_personality_v0 {
  switch i32 %2, label %"_ZNSt14_Function_base13_Base_managerIZN4cvc58internal3smt9PfManager24connectProofToAssertionsESt10shared_ptrINS2_9ProofNodeEERNS3_10AssertionsENS2_14ProofScopeModeEE3$_0E10_M_managerERSt9_Any_dataRKSD_St18_Manager_operation.exit" [
    i32 0, label %4
    i32 1, label %5
    i32 2, label %6
  ]

4:                                                ; preds = %3
  store ptr @"_ZTIZN4cvc58internal3smt9PfManager24connectProofToAssertionsESt10shared_ptrINS0_9ProofNodeEERNS1_10AssertionsENS0_14ProofScopeModeEE3$_0", ptr %0, align 8, !tbaa !594
  br label %"_ZNSt14_Function_base13_Base_managerIZN4cvc58internal3smt9PfManager24connectProofToAssertionsESt10shared_ptrINS2_9ProofNodeEERNS3_10AssertionsENS2_14ProofScopeModeEE3$_0E10_M_managerERSt9_Any_dataRKSD_St18_Manager_operation.exit"

5:                                                ; preds = %3
  store ptr %1, ptr %0, align 8, !tbaa !596
  br label %"_ZNSt14_Function_base13_Base_managerIZN4cvc58internal3smt9PfManager24connectProofToAssertionsESt10shared_ptrINS2_9ProofNodeEERNS3_10AssertionsENS2_14ProofScopeModeEE3$_0E10_M_managerERSt9_Any_dataRKSD_St18_Manager_operation.exit"

6:                                                ; preds = %3
  %.val.i = load i64, ptr %1, align 8, !tbaa !368
  store i64 %.val.i, ptr %0, align 8, !tbaa !368
  br label %"_ZNSt14_Function_base13_Base_managerIZN4cvc58internal3smt9PfManager24connectProofToAssertionsESt10shared_ptrINS2_9ProofNodeEERNS3_10AssertionsENS2_14ProofScopeModeEE3$_0E10_M_managerERSt9_Any_dataRKSD_St18_Manager_operation.exit"

"_ZNSt14_Function_base13_Base_managerIZN4cvc58internal3smt9PfManager24connectProofToAssertionsESt10shared_ptrINS2_9ProofNodeEERNS3_10AssertionsENS2_14ProofScopeModeEE3$_0E10_M_managerERSt9_Any_dataRKSD_St18_Manager_operation.exit": ; preds = %3, %6, %5, %4
  ret i1 false
}